; Function Attrs: mustprogress uwtable
define dso_local void @_ZNK5vcpkg30FullyBufferedDiagnosticContext9to_stringERNSt7__cxx1112basic_stringIcSt11char_traitsIcESaIcEEE(ptr noundef nonnull readonly align 8 captures(none) dereferenceable(32) %0, ptr noundef nonnull align 8 dereferenceable(32) %1) local_unnamed_addr #0 align 2 personality ptr @__gxx_personality_v0 {
  %3 = getelementptr inbounds nuw i8, ptr %0, i64 8
  %.val = load ptr, ptr %3, align 8, !tbaa !78
  %4 = getelementptr inbounds nuw i8, ptr %0, i64 16
  %.val2 = load ptr, ptr %4, align 8, !tbaa !78
  %5 = icmp eq ptr %.val, %.val2
  br i1 %5, label %_ZN12_GLOBAL__N_121joined_line_to_stringIN5vcpkg11MessageLineEEEvRKSt6vectorIT_SaIS4_EERNSt7__cxx1112basic_stringIcSt11char_traitsIcESaIcEEE.exit, label %.preheader.i

.preheader.i:                                     ; preds = %2
  tail call void @_ZNK5vcpkg11MessageLine9to_stringERNSt7__cxx1112basic_stringIcSt11char_traitsIcESaIcEEE(ptr noundef nonnull align 8 dereferenceable(24) %.val, ptr noundef nonnull align 8 dereferenceable(32) %1)
  %6 = getelementptr inbounds nuw i8, ptr %.val, i64 24
  %7 = icmp eq ptr %6, %.val2
  br i1 %7, label %_ZN12_GLOBAL__N_121joined_line_to_stringIN5vcpkg11MessageLineEEEvRKSt6vectorIT_SaIS4_EERNSt7__cxx1112basic_stringIcSt11char_traitsIcESaIcEEE.exit, label %.lr.ph.i

.lr.ph.i:                                         ; preds = %.preheader.i
  %8 = getelementptr inbounds nuw i8, ptr %1, i64 8
  %9 = getelementptr inbounds nuw i8, ptr %1, i64 16
  br label %10

10:                                               ; preds = %_ZNSt7__cxx1112basic_stringIcSt11char_traitsIcESaIcEE9push_backEc.exit.i, %.lr.ph.i
  %11 = phi ptr [ %6, %.lr.ph.i ], [ %26, %_ZNSt7__cxx1112basic_stringIcSt11char_traitsIcESaIcEE9push_backEc.exit.i ]
  %12 = load i64, ptr %8, align 8, !tbaa !17
  %13 = add i64 %12, 1
  %14 = load ptr, ptr %1, align 8, !tbaa !12
  %15 = icmp eq ptr %14, %9
  br i1 %15, label %16, label %_ZNKSt7__cxx1112basic_stringIcSt11char_traitsIcESaIcEE8capacityEv.exit.i.i

16:                                               ; preds = %10
  %17 = icmp ult i64 %12, 16
  tail call void @llvm.assume(i1 %17)
  br label %_ZNKSt7__cxx1112basic_stringIcSt11char_traitsIcESaIcEE8capacityEv.exit.i.i

_ZNKSt7__cxx1112basic_stringIcSt11char_traitsIcESaIcEE8capacityEv.exit.i.i: ; preds = %16, %10
  %18 = load i64, ptr %9, align 8
  %19 = select i1 %15, i64 15, i64 %18
  %20 = icmp ugt i64 %13, %19
  br i1 %20, label %21, label %_ZNSt7__cxx1112basic_stringIcSt11char_traitsIcESaIcEE9push_backEc.exit.i

21:                                               ; preds = %_ZNKSt7__cxx1112basic_stringIcSt11char_traitsIcESaIcEE8capacityEv.exit.i.i
  tail call void @_ZNSt7__cxx1112basic_stringIcSt11char_traitsIcESaIcEE9_M_mutateEmmPKcm(ptr noundef nonnull align 8 dereferenceable(32) %1, i64 noundef %12, i64 noundef 0, ptr noundef null, i64 noundef 1)
  %.pre.i.i = load ptr, ptr %1, align 8, !tbaa !12
  br label %_ZNSt7__cxx1112basic_stringIcSt11char_traitsIcESaIcEE9push_backEc.exit.i

_ZNSt7__cxx1112basic_stringIcSt11char_traitsIcESaIcEE9push_backEc.exit.i: ; preds = %21, %_ZNKSt7__cxx1112basic_stringIcSt11char_traitsIcESaIcEE8capacityEv.exit.i.i
  %22 = phi ptr [ %.pre.i.i, %21 ], [ %14, %_ZNKSt7__cxx1112basic_stringIcSt11char_traitsIcESaIcEE8capacityEv.exit.i.i ]
  %23 = getelementptr inbounds nuw i8, ptr %22, i64 %12
  store i8 10, ptr %23, align 1, !tbaa !18
  store i64 %13, ptr %8, align 8, !tbaa !17
  %24 = load ptr, ptr %1, align 8, !tbaa !12
  %25 = getelementptr inbounds nuw i8, ptr %24, i64 %13
  store i8 0, ptr %25, align 1, !tbaa !18
  tail call void @_ZNK5vcpkg11MessageLine9to_stringERNSt7__cxx1112basic_stringIcSt11char_traitsIcESaIcEEE(ptr noundef nonnull align 8 dereferenceable(24) %11, ptr noundef nonnull align 8 dereferenceable(32) %1)
  %26 = getelementptr inbounds nuw i8, ptr %11, i64 24
  %27 = icmp eq ptr %26, %.val2
  br i1 %27, label %_ZN12_GLOBAL__N_121joined_line_to_stringIN5vcpkg11MessageLineEEEvRKSt6vectorIT_SaIS4_EERNSt7__cxx1112basic_stringIcSt11char_traitsIcESaIcEEE.exit, label %10, !llvm.loop !79

_ZN12_GLOBAL__N_121joined_line_to_stringIN5vcpkg11MessageLineEEEvRKSt6vectorIT_SaIS4_EERNSt7__cxx1112basic_stringIcSt11char_traitsIcESaIcEEE.exit: ; preds = %_ZNSt7__cxx1112basic_stringIcSt11char_traitsIcESaIcEE9push_backEc.exit.i, %2, %.preheader.i
  ret void
}